target datalayout = "e-m:e-p270:32:32-p271:32:32-p272:64:64-i64:64-i128:128-f80:128-n8:16:32:64-S128"
target triple = "x86_64-unknown-linux-gnu"

%"class.std::__cxx11::basic_string" = type { %"struct.std::__cxx11::basic_string<char>::_Alloc_hider", i64, %union.anon }
%"struct.std::__cxx11::basic_string<char>::_Alloc_hider" = type { ptr }
%union.anon = type { i64, [8 x i8] }
%"struct.openvdb::v11_0::VersionId" = type { i32, i32 }
%"class.openvdb::v11_0::io::Archive" = type <{ ptr, i32, %"struct.openvdb::v11_0::VersionId", [4 x i8], %"class.std::__cxx11::basic_string", i8, i8, [2 x i8], i32, i8, [7 x i8] }>

; Function Attrs: mustprogress nounwind uwtable
define linkonce_odr noundef i32 @_ZNK7openvdb5v11_02io7Archive11compressionEv(ptr noundef nonnull align 8 dereferenceable(65) %this) #5 comdat align 2 {
entry:
  %this.addr = alloca ptr, align 8
  store ptr %this, ptr %this.addr, align 8
  %this1 = load ptr, ptr %this.addr, align 8
  %mCompression = getelementptr inbounds %"class.openvdb::v11_0::io::Archive", ptr %this1, i32 0, i32 8
  %0 = load i32, ptr %mCompression, align 4
  ret i32 %0
}

; Function Attrs: mustprogress uwtable
define void @_ZNK7openvdb5v11_02io7Archive18setGridCompressionERSoRKNS0_8GridBaseE(ptr noundef nonnull align 8 dereferenceable(65) %this, ptr noundef nonnull align 8 dereferenceable(8) %os, ptr noundef nonnull align 8 dereferenceable(72) %grid) #4 align 2 {
entry:
  %this.addr = alloca ptr, align 8
  %os.addr = alloca ptr, align 8
  %grid.addr = alloca ptr, align 8
  %c = alloca i32, align 4
  store ptr %this, ptr %this.addr, align 8
  store ptr %os, ptr %os.addr, align 8
  store ptr %grid, ptr %grid.addr, align 8
  %this1 = load ptr, ptr %this.addr, align 8
  %call = call noundef i32 @_ZNK7openvdb5v11_02io7Archive11compressionEv(ptr noundef nonnull align 8 dereferenceable(65) %this1)
  store i32 %call, ptr %c, align 4
  %0 = load ptr, ptr %grid.addr, align 8
  %call2 = call noundef i32 @_ZNK7openvdb5v11_08GridBase12getGridClassEv(ptr noundef nonnull align 8 dereferenceable(72) %0)
  switch i32 %call2, label %sw.epilog [
    i32 1, label %sw.bb
    i32 2, label %sw.bb
    i32 3, label %sw.bb3
    i32 0, label %sw.bb3
  ]

sw.bb:                                            ; preds = %entry, %entry
  %1 = load i32, ptr %c, align 4
  %and = and i32 %1, -2
  store i32 %and, ptr %c, align 4
  br label %sw.epilog

sw.bb3:                                           ; preds = %entry, %entry
  br label %sw.epilog

sw.epilog:                                        ; preds = %sw.bb3, %sw.bb, %entry
  %2 = load ptr, ptr %os.addr, align 8
  %vtable = load ptr, ptr %2, align 8
  %vbase.offset.ptr = getelementptr i8, ptr %vtable, i64 -24
  %vbase.offset = load i64, ptr %vbase.offset.ptr, align 8
  %add.ptr = getelementptr inbounds i8, ptr %2, i64 %vbase.offset
  %3 = load i32, ptr %c, align 4
  call void @_ZN7openvdb5v11_02io18setDataCompressionERSt8ios_basej(ptr noundef nonnull align 8 dereferenceable(216) %add.ptr, i32 noundef %3)
  %4 = load ptr, ptr %os.addr, align 8
  %call4 = call noundef nonnull align 8 dereferenceable(8) ptr @_ZNSo5writeEPKcl(ptr noundef nonnull align 8 dereferenceable(8) %4, ptr noundef %c, i64 noundef 4)
  ret void
}