; Function Attrs: mustprogress uwtable
define void @_ZNK7openvdb5v11_02io7Archive18setGridCompressionERSoRKNS0_8GridBaseE(ptr nocapture noundef nonnull readonly align 8 dereferenceable(65) %this, ptr noundef nonnull align 8 dereferenceable(8) %os, ptr noundef nonnull align 8 dereferenceable(72) %grid) local_unnamed_addr #6 align 2 {
entry:
  %c = alloca i32, align 4
  %mCompression.i = getelementptr inbounds i8, ptr %this, i64 60
  %0 = load i32, ptr %mCompression.i, align 4
  store i32 %0, ptr %c, align 4
  %call2 = tail call noundef i32 @_ZNK7openvdb5v11_08GridBase12getGridClassEv(ptr noundef nonnull align 8 dereferenceable(72) %grid)
  %call2.off = add i32 %call2, -1
  %switch = icmp ult i32 %call2.off, 2
  br i1 %switch, label %sw.bb, label %sw.epilog

sw.bb:                                            ; preds = %entry
  %and = and i32 %0, -2
  store i32 %and, ptr %c, align 4
  br label %sw.epilog

sw.epilog:                                        ; preds = %entry, %sw.bb
  %1 = phi i32 [ %0, %entry ], [ %and, %sw.bb ]
  %vtable = load ptr, ptr %os, align 8
  %vbase.offset.ptr = getelementptr i8, ptr %vtable, i64 -24
  %vbase.offset = load i64, ptr %vbase.offset.ptr, align 8
  %add.ptr = getelementptr inbounds i8, ptr %os, i64 %vbase.offset
  tail call void @_ZN7openvdb5v11_02io18setDataCompressionERSt8ios_basej(ptr noundef nonnull align 8 dereferenceable(216) %add.ptr, i32 noundef %1)
  %call4 = call noundef nonnull align 8 dereferenceable(8) ptr @_ZNSo5writeEPKcl(ptr noundef nonnull align 8 dereferenceable(8) %os, ptr noundef nonnull %c, i64 noundef 4)
  ret void
}